target datalayout = "e-m:e-p270:32:32-p271:32:32-p272:64:64-i64:64-i128:128-f80:128-n8:16:32:64-S128"
target triple = "x86_64-pc-linux-gnu"

%class.params_ref = type { ptr }
%class.eliminate_predicates = type { %class.dependent_expr_simplifier, %class.scoped_ptr_vector, %class.ast_mark, %class.ast_mark, %class.ast_mark, %class.ptr_vector.33, %class.ptr_vector.35, %class.ast_mark, %class.ast_mark, %"struct.eliminate_predicates::stats", %"class.eliminate_predicates::use_list", %class.der_rewriter, %class.th_rewriter, %class.obj_map.38 }
%class.dependent_expr_simplifier = type { ptr, ptr, ptr, ptr }
%class.scoped_ptr_vector = type { %class.ptr_vector.30 }
%class.ptr_vector.30 = type { %class.vector.31 }
%class.vector.31 = type { ptr }
%class.ptr_vector.33 = type { %class.vector.34 }
%class.vector.34 = type { ptr }
%class.ptr_vector.35 = type { %class.vector.36 }
%class.vector.36 = type { ptr }
%class.ast_mark = type { ptr, %class.obj_mark, %class.obj_mark.32 }
%class.obj_mark = type { [8 x i8], %class.bit_vector }
%class.bit_vector = type { i32, i32, ptr }
%class.obj_mark.32 = type { [8 x i8], %class.bit_vector }
%"struct.eliminate_predicates::stats" = type { i32, i32 }
%"class.eliminate_predicates::use_list" = type { %class.vector.37 }
%class.vector.37 = type { ptr }
%class.der_rewriter = type { ptr }
%class.th_rewriter = type { ptr, %class.params_ref }
%class.obj_map.38 = type { %class.core_hashtable.39 }
%class.core_hashtable.39 = type <{ ptr, i32, i32, i32, [4 x i8] }>

; Function Attrs: mustprogress nounwind uwtable
define linkonce_odr hidden noundef i32 @_ZNK6vectorIP9func_declLb0EjE4sizeEv(ptr noundef nonnull align 8 dereferenceable(8) %0) #6 comdat align 2 {
  %2 = alloca i32, align 4
  %3 = alloca ptr, align 8
  store ptr %0, ptr %3, align 8, !tbaa !95
  %4 = load ptr, ptr %3, align 8
  %5 = getelementptr inbounds nuw %class.vector.34, ptr %4, i32 0, i32 0
  %6 = load ptr, ptr %5, align 8, !tbaa !119
  %7 = icmp eq ptr %6, null
  br i1 %7, label %8, label %9

8:                                                ; preds = %1
  store i32 0, ptr %2, align 4
  br label %14

9:                                                ; preds = %1
  %10 = getelementptr inbounds nuw %class.vector.34, ptr %4, i32 0, i32 0
  %11 = load ptr, ptr %10, align 8, !tbaa !119
  %12 = getelementptr inbounds i32, ptr %11, i64 -1
  %13 = load i32, ptr %12, align 4, !tbaa !48
  store i32 %13, ptr %2, align 4
  br label %14

14:                                               ; preds = %9, %8
  %15 = load i32, ptr %2, align 4
  ret i32 %15
}

; Function Attrs: mustprogress nounwind uwtable
define linkonce_odr hidden noundef ptr @_ZN6vectorIP9func_declLb0EjE3endEv(ptr noundef nonnull align 8 dereferenceable(8) %0) #6 comdat align 2 {
  %2 = alloca ptr, align 8
  store ptr %0, ptr %2, align 8, !tbaa !95
  %3 = load ptr, ptr %2, align 8
  %4 = getelementptr inbounds nuw %class.vector.34, ptr %3, i32 0, i32 0
  %5 = load ptr, ptr %4, align 8, !tbaa !119
  %6 = call noundef i32 @_ZNK6vectorIP9func_declLb0EjE4sizeEv(ptr noundef nonnull align 8 dereferenceable(8) %3)
  %7 = zext i32 %6 to i64
  %8 = getelementptr inbounds nuw ptr, ptr %5, i64 %7
  ret ptr %8
}

; Function Attrs: mustprogress nounwind uwtable
define linkonce_odr hidden noundef ptr @_ZN6vectorIP9func_declLb0EjE5beginEv(ptr noundef nonnull align 8 dereferenceable(8) %0) #6 comdat align 2 {
  %2 = alloca ptr, align 8
  store ptr %0, ptr %2, align 8, !tbaa !95
  %3 = load ptr, ptr %2, align 8
  %4 = getelementptr inbounds nuw %class.vector.34, ptr %3, i32 0, i32 0
  %5 = load ptr, ptr %4, align 8, !tbaa !119
  ret ptr %5
}

; Function Attrs: mustprogress uwtable
define hidden void @_ZN20eliminate_predicates11try_resolveEv(ptr noundef nonnull align 8 dereferenceable(400) %0) #4 align 2 {
  %2 = alloca ptr, align 8
  %3 = alloca ptr, align 8
  %4 = alloca ptr, align 8
  %5 = alloca ptr, align 8
  %6 = alloca ptr, align 8
  store ptr %0, ptr %2, align 8, !tbaa !63
  %7 = load ptr, ptr %2, align 8
  call void @llvm.lifetime.start.p0(i64 8, ptr %3) #3
  %8 = getelementptr inbounds nuw %class.eliminate_predicates, ptr %7, i32 0, i32 5
  store ptr %8, ptr %3, align 8, !tbaa !75
  call void @llvm.lifetime.start.p0(i64 8, ptr %4) #3
  %9 = load ptr, ptr %3, align 8, !tbaa !75
  %10 = call noundef ptr @_ZN6vectorIP9func_declLb0EjE5beginEv(ptr noundef nonnull align 8 dereferenceable(8) %9)
  store ptr %10, ptr %4, align 8, !tbaa !117
  call void @llvm.lifetime.start.p0(i64 8, ptr %5) #3
  %11 = load ptr, ptr %3, align 8, !tbaa !75
  %12 = call noundef ptr @_ZN6vectorIP9func_declLb0EjE3endEv(ptr noundef nonnull align 8 dereferenceable(8) %11)
  store ptr %12, ptr %5, align 8, !tbaa !117
  br label %13

13:                                               ; preds = %22, %1
  %14 = load ptr, ptr %4, align 8, !tbaa !117
  %15 = load ptr, ptr %5, align 8, !tbaa !117
  %16 = icmp ne ptr %14, %15
  br i1 %16, label %18, label %17

17:                                               ; preds = %13
  call void @llvm.lifetime.end.p0(i64 8, ptr %5) #3
  call void @llvm.lifetime.end.p0(i64 8, ptr %4) #3
  call void @llvm.lifetime.end.p0(i64 8, ptr %3) #3
  br label %25

18:                                               ; preds = %13
  call void @llvm.lifetime.start.p0(i64 8, ptr %6) #3
  %19 = load ptr, ptr %4, align 8, !tbaa !117
  %20 = load ptr, ptr %19, align 8, !tbaa !98
  store ptr %20, ptr %6, align 8, !tbaa !98
  %21 = load ptr, ptr %6, align 8, !tbaa !98
  call void @_ZN20eliminate_predicates11try_resolveEP9func_decl(ptr noundef nonnull align 8 dereferenceable(400) %7, ptr noundef %21)
  call void @llvm.lifetime.end.p0(i64 8, ptr %6) #3
  br label %22

22:                                               ; preds = %18
  %23 = load ptr, ptr %4, align 8, !tbaa !117
  %24 = getelementptr inbounds nuw ptr, ptr %23, i32 1
  store ptr %24, ptr %4, align 8, !tbaa !117
  br label %13

25:                                               ; preds = %17
  ret void
}