; Function Attrs: mustprogress uwtable
define hidden void @_ZN20eliminate_predicates11try_resolveEv(ptr noundef nonnull align 8 dereferenceable(400) %0) local_unnamed_addr #3 align 2 {
  %2 = getelementptr inbounds nuw i8, ptr %0, i64 208
  %3 = load ptr, ptr %2, align 8, !tbaa !58
  %4 = icmp eq ptr %3, null
  br i1 %4, label %._crit_edge, label %_ZN6vectorIP9func_declLb0EjE3endEv.exit

_ZN6vectorIP9func_declLb0EjE3endEv.exit:          ; preds = %1
  %5 = getelementptr inbounds i8, ptr %3, i64 -4
  %6 = load i32, ptr %5, align 4, !tbaa !14
  %7 = zext i32 %6 to i64
  %8 = getelementptr inbounds nuw ptr, ptr %3, i64 %7
  %.not8 = icmp eq i32 %6, 0
  br i1 %.not8, label %._crit_edge, label %.lr.ph

._crit_edge:                                      ; preds = %.lr.ph, %1, %_ZN6vectorIP9func_declLb0EjE3endEv.exit
  ret void

.lr.ph:                                           ; preds = %_ZN6vectorIP9func_declLb0EjE3endEv.exit, %.lr.ph
  %.09 = phi ptr [ %10, %.lr.ph ], [ %3, %_ZN6vectorIP9func_declLb0EjE3endEv.exit ]
  %9 = load ptr, ptr %.09, align 8, !tbaa !81
  tail call void @_ZN20eliminate_predicates11try_resolveEP9func_decl(ptr noundef nonnull align 8 dereferenceable(400) %0, ptr noundef %9)
  %10 = getelementptr inbounds nuw i8, ptr %.09, i64 8
  %.not = icmp eq ptr %10, %8
  br i1 %.not, label %._crit_edge, label %.lr.ph
}